; ModuleID = '49/437.cpp'
source_filename = "49/437.cpp"
target datalayout = "e-m:e-p270:32:32-p271:32:32-p272:64:64-i64:64-f80:128-n8:16:32:64-S128"
target triple = "x86_64-pc-linux-gnu"

%"class.std::ios_base::Init" = type { i8 }
%"class.std::basic_istream" = type { i32 (...)**, i64, %"class.std::basic_ios" }
%"class.std::basic_ios" = type { %"class.std::ios_base", %"class.std::basic_ostream"*, i8, i8, %"class.std::basic_streambuf"*, %"class.std::ctype"*, %"class.std::num_put"*, %"class.std::num_get"* }
%"class.std::ios_base" = type { i32 (...)**, i64, i64, i32, i32, i32, %"struct.std::ios_base::_Callback_list"*, %"struct.std::ios_base::_Words", [8 x %"struct.std::ios_base::_Words"], i32, %"struct.std::ios_base::_Words"*, %"class.std::locale" }
%"struct.std::ios_base::_Callback_list" = type { %"struct.std::ios_base::_Callback_list"*, void (i32, %"class.std::ios_base"*, i32)*, i32, i32 }
%"struct.std::ios_base::_Words" = type { i8*, i64 }
%"class.std::locale" = type { %"class.std::locale::_Impl"* }
%"class.std::locale::_Impl" = type { i32, %"class.std::locale::facet"**, i64, %"class.std::locale::facet"**, i8** }
%"class.std::locale::facet" = type <{ i32 (...)**, i32, [4 x i8] }>
%"class.std::basic_ostream" = type { i32 (...)**, %"class.std::basic_ios" }
%"class.std::basic_streambuf" = type { i32 (...)**, i8*, i8*, i8*, i8*, i8*, i8*, %"class.std::locale" }
%"class.std::ctype" = type <{ %"class.std::locale::facet.base", [4 x i8], %struct.__locale_struct*, i8, [7 x i8], i32*, i32*, i16*, i8, [256 x i8], [256 x i8], i8, [6 x i8] }>
%"class.std::locale::facet.base" = type <{ i32 (...)**, i32 }>
%struct.__locale_struct = type { [13 x %struct.__locale_data*], i16*, i32*, i32*, [13 x i8*] }
%struct.__locale_data = type opaque
%"class.std::num_put" = type { %"class.std::locale::facet.base", [4 x i8] }
%"class.std::num_get" = type { %"class.std::locale::facet.base", [4 x i8] }

@_ZStL8__ioinit = internal global %"class.std::ios_base::Init" zeroinitializer, align 1
@__dso_handle = external hidden global i8
@a = dso_local global i32 0, align 4
@i = dso_local global i32 0, align 4
@j = dso_local global i32 0, align 4
@flag = dso_local global i32 1, align 4
@_ZSt3cin = external dso_local global %"class.std::basic_istream", align 8
@_ZSt4cout = external dso_local global %"class.std::basic_ostream", align 8
@llvm.global_ctors = appending global [1 x { i32, void ()*, i8* }] [{ i32, void ()*, i8* } { i32 65535, void ()* @_GLOBAL__sub_I_437.cpp, i8* null }]

; Function Attrs: noinline uwtable
define internal void @__cxx_global_var_init() #0 section ".text.startup" {
  call void @_ZNSt8ios_base4InitC1Ev(%"class.std::ios_base::Init"* @_ZStL8__ioinit)
  %1 = call i32 @__cxa_atexit(void (i8*)* bitcast (void (%"class.std::ios_base::Init"*)* @_ZNSt8ios_base4InitD1Ev to void (i8*)*), i8* getelementptr inbounds (%"class.std::ios_base::Init", %"class.std::ios_base::Init"* @_ZStL8__ioinit, i32 0, i32 0), i8* @__dso_handle) #3
  ret void
}

declare dso_local void @_ZNSt8ios_base4InitC1Ev(%"class.std::ios_base::Init"*) unnamed_addr #1

; Function Attrs: nounwind
declare dso_local void @_ZNSt8ios_base4InitD1Ev(%"class.std::ios_base::Init"*) unnamed_addr #2

; Function Attrs: nounwind
declare dso_local i32 @__cxa_atexit(void (i8*)*, i8*, i8*) #3

; Function Attrs: noinline norecurse uwtable
define dso_local i32 @main() #4 {
  %1 = alloca i32, align 4
  %2 = alloca i32, align 4
  %3 = alloca [500 x i8], align 16
  store i32 0, i32* %1, align 4
  %4 = getelementptr inbounds [500 x i8], [500 x i8]* %3, i64 0, i64 0
  %5 = call dereferenceable(280) %"class.std::basic_istream"* @_ZNSi7getlineEPcl(%"class.std::basic_istream"* @_ZSt3cin, i8* %4, i64 500)
  store i32 2, i32* %2, align 4
  br label %6

6:                                                ; preds = %16, %0
  %7 = load i32, i32* %2, align 4
  %8 = sext i32 %7 to i64
  %9 = getelementptr inbounds [500 x i8], [500 x i8]* %3, i64 0, i64 %8
  %10 = load i8, i8* %9, align 1
  %11 = sext i8 %10 to i32
  %12 = icmp ne i32 %11, 0
  br i1 %12, label %13, label %19

13:                                               ; preds = %6
  %14 = load i32, i32* %2, align 4
  %15 = getelementptr inbounds [500 x i8], [500 x i8]* %3, i64 0, i64 0
  call void @_Z7recycleiPc(i32 %14, i8* %15)
  br label %16

16:                                               ; preds = %13
  %17 = load i32, i32* %2, align 4
  %18 = add nsw i32 %17, 1
  store i32 %18, i32* %2, align 4
  br label %6

19:                                               ; preds = %6
  %20 = load i32, i32* %1, align 4
  ret i32 %20
}

declare dso_local dereferenceable(280) %"class.std::basic_istream"* @_ZNSi7getlineEPcl(%"class.std::basic_istream"*, i8*, i64) #1

; Function Attrs: noinline uwtable
define dso_local void @_Z7recycleiPc(i32 %0, i8* %1) #0 {
  %3 = alloca i32, align 4
  %4 = alloca i8*, align 8
  store i32 %0, i32* %3, align 4
  store i8* %1, i8** %4, align 8
  store i32 0, i32* @i, align 4
  br label %5

5:                                                ; preds = %68, %2
  %6 = load i8*, i8** %4, align 8
  %7 = load i32, i32* @i, align 4
  %8 = sext i32 %7 to i64
  %9 = getelementptr inbounds i8, i8* %6, i64 %8
  %10 = load i8, i8* %9, align 1
  %11 = sext i8 %10 to i32
  %12 = icmp ne i32 %11, 0
  br i1 %12, label %13, label %71

13:                                               ; preds = %5
  store i32 1, i32* @flag, align 4
  store i32 0, i32* @j, align 4
  br label %14

14:                                               ; preds = %41, %13
  %15 = load i32, i32* @j, align 4
  %16 = load i32, i32* %3, align 4
  %17 = icmp slt i32 %15, %16
  br i1 %17, label %18, label %44

18:                                               ; preds = %14
  %19 = load i8*, i8** %4, align 8
  %20 = load i32, i32* @i, align 4
  %21 = load i32, i32* @j, align 4
  %22 = add nsw i32 %20, %21
  %23 = sext i32 %22 to i64
  %24 = getelementptr inbounds i8, i8* %19, i64 %23
  %25 = load i8, i8* %24, align 1
  %26 = sext i8 %25 to i32
  %27 = load i8*, i8** %4, align 8
  %28 = load i32, i32* @i, align 4
  %29 = load i32, i32* %3, align 4
  %30 = add nsw i32 %28, %29
  %31 = sub nsw i32 %30, 1
  %32 = load i32, i32* @j, align 4
  %33 = sub nsw i32 %31, %32
  %34 = sext i32 %33 to i64
  %35 = getelementptr inbounds i8, i8* %27, i64 %34
  %36 = load i8, i8* %35, align 1
  %37 = sext i8 %36 to i32
  %38 = icmp ne i32 %26, %37
  br i1 %38, label %39, label %40

39:                                               ; preds = %18
  store i32 0, i32* @flag, align 4
  br label %44

40:                                               ; preds = %18
  br label %41

41:                                               ; preds = %40
  %42 = load i32, i32* @j, align 4
  %43 = add nsw i32 %42, 1
  store i32 %43, i32* @j, align 4
  br label %14

44:                                               ; preds = %39, %14
  %45 = load i32, i32* @flag, align 4
  %46 = icmp ne i32 %45, 0
  br i1 %46, label %47, label %66

47:                                               ; preds = %44
  %48 = load i32, i32* @i, align 4
  store i32 %48, i32* @j, align 4
  br label %49

49:                                               ; preds = %62, %47
  %50 = load i32, i32* @j, align 4
  %51 = load i32, i32* @i, align 4
  %52 = load i32, i32* %3, align 4
  %53 = add nsw i32 %51, %52
  %54 = icmp slt i32 %50, %53
  br i1 %54, label %55, label %65

55:                                               ; preds = %49
  %56 = load i8*, i8** %4, align 8
  %57 = load i32, i32* @j, align 4
  %58 = sext i32 %57 to i64
  %59 = getelementptr inbounds i8, i8* %56, i64 %58
  %60 = load i8, i8* %59, align 1
  %61 = call dereferenceable(272) %"class.std::basic_ostream"* @_ZStlsISt11char_traitsIcEERSt13basic_ostreamIcT_ES5_c(%"class.std::basic_ostream"* dereferenceable(272) @_ZSt4cout, i8 signext %60)
  br label %62

62:                                               ; preds = %55
  %63 = load i32, i32* @j, align 4
  %64 = add nsw i32 %63, 1
  store i32 %64, i32* @j, align 4
  br label %49

65:                                               ; preds = %49
  br label %66

66:                                               ; preds = %65, %44
  %67 = call dereferenceable(272) %"class.std::basic_ostream"* @_ZNSolsEPFRSoS_E(%"class.std::basic_ostream"* @_ZSt4cout, %"class.std::basic_ostream"* (%"class.std::basic_ostream"*)* @_ZSt4endlIcSt11char_traitsIcEERSt13basic_ostreamIT_T0_ES6_)
  br label %68

68:                                               ; preds = %66
  %69 = load i32, i32* @i, align 4
  %70 = add nsw i32 %69, 1
  store i32 %70, i32* @i, align 4
  br label %5

71:                                               ; preds = %5
  ret void
}

declare dso_local dereferenceable(272) %"class.std::basic_ostream"* @_ZStlsISt11char_traitsIcEERSt13basic_ostreamIcT_ES5_c(%"class.std::basic_ostream"* dereferenceable(272), i8 signext) #1

declare dso_local dereferenceable(272) %"class.std::basic_ostream"* @_ZNSolsEPFRSoS_E(%"class.std::basic_ostream"*, %"class.std::basic_ostream"* (%"class.std::basic_ostream"*)*) #1

declare dso_local dereferenceable(272) %"class.std::basic_ostream"* @_ZSt4endlIcSt11char_traitsIcEERSt13basic_ostreamIT_T0_ES6_(%"class.std::basic_ostream"* dereferenceable(272)) #1

; Function Attrs: noinline uwtable
define internal void @_GLOBAL__sub_I_437.cpp() #0 section ".text.startup" {
  call void @__cxx_global_var_init()
  ret void
}


!llvm.module.flags = !{!0}
!llvm.ident = !{!1}

!0 = !{i32 1, !"wchar_size", i32 4}
!1 = !{!"clang version 10.0.0-4ubuntu1 "}
